target datalayout = "e-m:e-p270:32:32-p271:32:32-p272:64:64-i64:64-i128:128-f80:128-n8:16:32:64-S128"
target triple = "x86_64-pc-linux-gnu"

%struct.ggml_backend = type { ptr, %struct.ggml_backend_i, ptr, ptr }
%struct.ggml_backend_i = type { ptr, ptr, ptr, ptr, ptr, ptr, ptr, ptr, ptr, ptr, ptr, ptr, ptr }

@.str = private unnamed_addr constant [123 x i8] c"generated/home/dtcxzyw/WorkSpace/Projects/compilers/llvm-opt-benchmark/bench/llama.cpp/llama.cpp/ggml/src/ggml-backend.cpp\00", align 1
@.str.1 = private unnamed_addr constant [23 x i8] c"GGML_ASSERT(%s) failed\00", align 1
@.str.12 = private unnamed_addr constant [42 x i8] c"backend->iface.graph_plan_compute != NULL\00", align 1

; Function Attrs: mustprogress uwtable
define i32 @ggml_backend_graph_plan_compute(ptr noundef %0, ptr noundef %1) #0 {
  %3 = alloca ptr, align 8
  %4 = alloca ptr, align 8
  store ptr %0, ptr %3, align 8, !tbaa !56
  store ptr %1, ptr %4, align 8, !tbaa !15
  %5 = load ptr, ptr %3, align 8, !tbaa !56
  %6 = getelementptr inbounds nuw %struct.ggml_backend, ptr %5, i32 0, i32 1
  %7 = getelementptr inbounds nuw %struct.ggml_backend_i, ptr %6, i32 0, i32 9
  %8 = load ptr, ptr %7, align 8, !tbaa !81
  %9 = icmp ne ptr %8, null
  br i1 %9, label %11, label %10

10:                                               ; preds = %2
  call void (ptr, i32, ptr, ...) @ggml_abort(ptr noundef @.str, i32 noundef 320, ptr noundef @.str.1, ptr noundef @.str.12) #18
  unreachable

11:                                               ; preds = %2
  %12 = load ptr, ptr %3, align 8, !tbaa !56
  %13 = getelementptr inbounds nuw %struct.ggml_backend, ptr %12, i32 0, i32 1
  %14 = getelementptr inbounds nuw %struct.ggml_backend_i, ptr %13, i32 0, i32 9
  %15 = load ptr, ptr %14, align 8, !tbaa !81
  %16 = load ptr, ptr %3, align 8, !tbaa !56
  %17 = load ptr, ptr %4, align 8, !tbaa !15
  %18 = call noundef i32 %15(ptr noundef %16, ptr noundef %17)
  ret i32 %18
}